; Function Attrs: mustprogress uwtable
define hidden noundef double @_Z21get_translation_errorRKN2cv3MatES2_(ptr noundef nonnull align 8 dereferenceable(96) %0, ptr noundef nonnull align 8 dereferenceable(96) %1) local_unnamed_addr #6 personality ptr @__gxx_personality_v0 {
  %3 = alloca %"class.cv::_InputArray", align 8
  %4 = alloca %"class.cv::MatExpr", align 8
  call void @llvm.lifetime.start.p0(i64 24, ptr nonnull %3) #25
  call void @llvm.lifetime.start.p0(i64 352, ptr nonnull %4) #25
  call void @_ZN2cvmiERKNS_3MatES2_(ptr dead_on_unwind nonnull writable sret(%"class.cv::MatExpr") align 8 %4, ptr noundef nonnull align 8 dereferenceable(96) %0, ptr noundef nonnull align 8 dereferenceable(96) %1)
  invoke void @_ZN2cv11_InputArrayC1ERKNS_7MatExprE(ptr noundef nonnull align 8 dereferenceable(24) %3, ptr noundef nonnull align 8 dereferenceable(352) %4)
          to label %5 unwind label %13

5:                                                ; preds = %2
  %6 = invoke noundef nonnull align 8 dereferenceable(24) ptr @_ZN2cv7noArrayEv()
          to label %7 unwind label %15

7:                                                ; preds = %5
  %8 = invoke noundef double @_ZN2cv4normERKNS_11_InputArrayEiS2_(ptr noundef nonnull align 8 dereferenceable(24) %3, i32 noundef 4, ptr noundef nonnull align 8 dereferenceable(24) %6)
          to label %9 unwind label %15

9:                                                ; preds = %7
  %10 = getelementptr inbounds nuw i8, ptr %4, i64 208
  call void @_ZN2cv3MatD1Ev(ptr noundef nonnull align 8 dereferenceable(96) %10) #25
  %11 = getelementptr inbounds nuw i8, ptr %4, i64 112
  call void @_ZN2cv3MatD1Ev(ptr noundef nonnull align 8 dereferenceable(96) %11) #25
  %12 = getelementptr inbounds nuw i8, ptr %4, i64 16
  call void @_ZN2cv3MatD1Ev(ptr noundef nonnull align 8 dereferenceable(96) %12) #25
  call void @llvm.lifetime.end.p0(i64 352, ptr nonnull %4) #25
  call void @llvm.lifetime.end.p0(i64 24, ptr nonnull %3) #25
  ret double %8

13:                                               ; preds = %2
  %14 = landingpad { ptr, i32 }
          cleanup
  br label %17

15:                                               ; preds = %7, %5
  %16 = landingpad { ptr, i32 }
          cleanup
  br label %17

17:                                               ; preds = %15, %13
  %.pn = phi { ptr, i32 } [ %16, %15 ], [ %14, %13 ]
  call void @_ZN2cv7MatExprD2Ev(ptr noundef nonnull align 8 dereferenceable(352) %4) #25
  call void @llvm.lifetime.end.p0(i64 352, ptr nonnull %4) #25
  call void @llvm.lifetime.end.p0(i64 24, ptr nonnull %3) #25
  resume { ptr, i32 } %.pn
}